; ModuleID = '33/2707.c'
source_filename = "33/2707.c"
target datalayout = "e-m:e-p270:32:32-p271:32:32-p272:64:64-i64:64-f80:128-n8:16:32:64-S128"
target triple = "x86_64-pc-linux-gnu"

@.str = private unnamed_addr constant [3 x i8] c"%d\00", align 1
@.str.1 = private unnamed_addr constant [3 x i8] c"%s\00", align 1
@.str.2 = private unnamed_addr constant [4 x i8] c"%s\0A\00", align 1

; Function Attrs: noinline nounwind uwtable
define dso_local i32 @main() #0 {
  %1 = alloca i32, align 4
  %2 = alloca i32, align 4
  %3 = alloca i32, align 4
  %4 = alloca i32, align 4
  %5 = alloca i8**, align 8
  %6 = alloca i8**, align 8
  store i32 0, i32* %1, align 4
  %7 = call i32 (i8*, ...) @__isoc99_scanf(i8* getelementptr inbounds ([3 x i8], [3 x i8]* @.str, i64 0, i64 0), i32* %2)
  %8 = load i32, i32* %2, align 4
  %9 = sext i32 %8 to i64
  %10 = mul i64 %9, 8
  %11 = call noalias i8* @malloc(i64 %10) #3
  %12 = bitcast i8* %11 to i8**
  store i8** %12, i8*** %5, align 8
  %13 = load i32, i32* %2, align 4
  %14 = sext i32 %13 to i64
  %15 = mul i64 %14, 8
  %16 = call noalias i8* @malloc(i64 %15) #3
  %17 = bitcast i8* %16 to i8**
  store i8** %17, i8*** %6, align 8
  store i32 0, i32* %3, align 4
  br label %18

18:                                               ; preds = %33, %0
  %19 = load i32, i32* %3, align 4
  %20 = load i32, i32* %2, align 4
  %21 = icmp slt i32 %19, %20
  br i1 %21, label %22, label %36

22:                                               ; preds = %18
  %23 = call noalias i8* @malloc(i64 256) #3
  %24 = load i8**, i8*** %5, align 8
  %25 = load i32, i32* %3, align 4
  %26 = sext i32 %25 to i64
  %27 = getelementptr inbounds i8*, i8** %24, i64 %26
  store i8* %23, i8** %27, align 8
  %28 = call noalias i8* @malloc(i64 256) #3
  %29 = load i8**, i8*** %6, align 8
  %30 = load i32, i32* %3, align 4
  %31 = sext i32 %30 to i64
  %32 = getelementptr inbounds i8*, i8** %29, i64 %31
  store i8* %28, i8** %32, align 8
  br label %33

33:                                               ; preds = %22
  %34 = load i32, i32* %3, align 4
  %35 = add nsw i32 %34, 1
  store i32 %35, i32* %3, align 4
  br label %18

36:                                               ; preds = %18
  store i32 0, i32* %3, align 4
  br label %37

37:                                               ; preds = %48, %36
  %38 = load i32, i32* %3, align 4
  %39 = load i32, i32* %2, align 4
  %40 = icmp slt i32 %38, %39
  br i1 %40, label %41, label %51

41:                                               ; preds = %37
  %42 = load i8**, i8*** %5, align 8
  %43 = load i32, i32* %3, align 4
  %44 = sext i32 %43 to i64
  %45 = getelementptr inbounds i8*, i8** %42, i64 %44
  %46 = load i8*, i8** %45, align 8
  %47 = call i32 (i8*, ...) @__isoc99_scanf(i8* getelementptr inbounds ([3 x i8], [3 x i8]* @.str.1, i64 0, i64 0), i8* %46)
  br label %48

48:                                               ; preds = %41
  %49 = load i32, i32* %3, align 4
  %50 = add nsw i32 %49, 1
  store i32 %50, i32* %3, align 4
  br label %37

51:                                               ; preds = %37
  store i32 0, i32* %3, align 4
  br label %52

52:                                               ; preds = %166, %51
  %53 = load i32, i32* %3, align 4
  %54 = load i32, i32* %2, align 4
  %55 = icmp slt i32 %53, %54
  br i1 %55, label %56, label %169

56:                                               ; preds = %52
  store i32 0, i32* %4, align 4
  br label %57

57:                                               ; preds = %154, %56
  %58 = load i8**, i8*** %5, align 8
  %59 = load i32, i32* %3, align 4
  %60 = sext i32 %59 to i64
  %61 = getelementptr inbounds i8*, i8** %58, i64 %60
  %62 = load i8*, i8** %61, align 8
  %63 = load i32, i32* %4, align 4
  %64 = sext i32 %63 to i64
  %65 = getelementptr inbounds i8, i8* %62, i64 %64
  %66 = load i8, i8* %65, align 1
  %67 = sext i8 %66 to i32
  %68 = icmp ne i32 %67, 0
  br i1 %68, label %69, label %157

69:                                               ; preds = %57
  %70 = load i8**, i8*** %5, align 8
  %71 = load i32, i32* %3, align 4
  %72 = sext i32 %71 to i64
  %73 = getelementptr inbounds i8*, i8** %70, i64 %72
  %74 = load i8*, i8** %73, align 8
  %75 = load i32, i32* %4, align 4
  %76 = sext i32 %75 to i64
  %77 = getelementptr inbounds i8, i8* %74, i64 %76
  %78 = load i8, i8* %77, align 1
  %79 = sext i8 %78 to i32
  %80 = icmp eq i32 %79, 65
  br i1 %80, label %81, label %90

81:                                               ; preds = %69
  %82 = load i8**, i8*** %6, align 8
  %83 = load i32, i32* %3, align 4
  %84 = sext i32 %83 to i64
  %85 = getelementptr inbounds i8*, i8** %82, i64 %84
  %86 = load i8*, i8** %85, align 8
  %87 = load i32, i32* %4, align 4
  %88 = sext i32 %87 to i64
  %89 = getelementptr inbounds i8, i8* %86, i64 %88
  store i8 84, i8* %89, align 1
  br label %90

90:                                               ; preds = %81, %69
  %91 = load i8**, i8*** %5, align 8
  %92 = load i32, i32* %3, align 4
  %93 = sext i32 %92 to i64
  %94 = getelementptr inbounds i8*, i8** %91, i64 %93
  %95 = load i8*, i8** %94, align 8
  %96 = load i32, i32* %4, align 4
  %97 = sext i32 %96 to i64
  %98 = getelementptr inbounds i8, i8* %95, i64 %97
  %99 = load i8, i8* %98, align 1
  %100 = sext i8 %99 to i32
  %101 = icmp eq i32 %100, 84
  br i1 %101, label %102, label %111

102:                                              ; preds = %90
  %103 = load i8**, i8*** %6, align 8
  %104 = load i32, i32* %3, align 4
  %105 = sext i32 %104 to i64
  %106 = getelementptr inbounds i8*, i8** %103, i64 %105
  %107 = load i8*, i8** %106, align 8
  %108 = load i32, i32* %4, align 4
  %109 = sext i32 %108 to i64
  %110 = getelementptr inbounds i8, i8* %107, i64 %109
  store i8 65, i8* %110, align 1
  br label %111

111:                                              ; preds = %102, %90
  %112 = load i8**, i8*** %5, align 8
  %113 = load i32, i32* %3, align 4
  %114 = sext i32 %113 to i64
  %115 = getelementptr inbounds i8*, i8** %112, i64 %114
  %116 = load i8*, i8** %115, align 8
  %117 = load i32, i32* %4, align 4
  %118 = sext i32 %117 to i64
  %119 = getelementptr inbounds i8, i8* %116, i64 %118
  %120 = load i8, i8* %119, align 1
  %121 = sext i8 %120 to i32
  %122 = icmp eq i32 %121, 71
  br i1 %122, label %123, label %132

123:                                              ; preds = %111
  %124 = load i8**, i8*** %6, align 8
  %125 = load i32, i32* %3, align 4
  %126 = sext i32 %125 to i64
  %127 = getelementptr inbounds i8*, i8** %124, i64 %126
  %128 = load i8*, i8** %127, align 8
  %129 = load i32, i32* %4, align 4
  %130 = sext i32 %129 to i64
  %131 = getelementptr inbounds i8, i8* %128, i64 %130
  store i8 67, i8* %131, align 1
  br label %132

132:                                              ; preds = %123, %111
  %133 = load i8**, i8*** %5, align 8
  %134 = load i32, i32* %3, align 4
  %135 = sext i32 %134 to i64
  %136 = getelementptr inbounds i8*, i8** %133, i64 %135
  %137 = load i8*, i8** %136, align 8
  %138 = load i32, i32* %4, align 4
  %139 = sext i32 %138 to i64
  %140 = getelementptr inbounds i8, i8* %137, i64 %139
  %141 = load i8, i8* %140, align 1
  %142 = sext i8 %141 to i32
  %143 = icmp eq i32 %142, 67
  br i1 %143, label %144, label %153

144:                                              ; preds = %132
  %145 = load i8**, i8*** %6, align 8
  %146 = load i32, i32* %3, align 4
  %147 = sext i32 %146 to i64
  %148 = getelementptr inbounds i8*, i8** %145, i64 %147
  %149 = load i8*, i8** %148, align 8
  %150 = load i32, i32* %4, align 4
  %151 = sext i32 %150 to i64
  %152 = getelementptr inbounds i8, i8* %149, i64 %151
  store i8 71, i8* %152, align 1
  br label %153

153:                                              ; preds = %144, %132
  br label %154

154:                                              ; preds = %153
  %155 = load i32, i32* %4, align 4
  %156 = add nsw i32 %155, 1
  store i32 %156, i32* %4, align 4
  br label %57

157:                                              ; preds = %57
  %158 = load i8**, i8*** %6, align 8
  %159 = load i32, i32* %3, align 4
  %160 = sext i32 %159 to i64
  %161 = getelementptr inbounds i8*, i8** %158, i64 %160
  %162 = load i8*, i8** %161, align 8
  %163 = load i32, i32* %4, align 4
  %164 = sext i32 %163 to i64
  %165 = getelementptr inbounds i8, i8* %162, i64 %164
  store i8 0, i8* %165, align 1
  br label %166

166:                                              ; preds = %157
  %167 = load i32, i32* %3, align 4
  %168 = add nsw i32 %167, 1
  store i32 %168, i32* %3, align 4
  br label %52

169:                                              ; preds = %52
  store i32 0, i32* %3, align 4
  br label %170

170:                                              ; preds = %181, %169
  %171 = load i32, i32* %3, align 4
  %172 = load i32, i32* %2, align 4
  %173 = icmp slt i32 %171, %172
  br i1 %173, label %174, label %184

174:                                              ; preds = %170
  %175 = load i8**, i8*** %6, align 8
  %176 = load i32, i32* %3, align 4
  %177 = sext i32 %176 to i64
  %178 = getelementptr inbounds i8*, i8** %175, i64 %177
  %179 = load i8*, i8** %178, align 8
  %180 = call i32 (i8*, ...) @printf(i8* getelementptr inbounds ([4 x i8], [4 x i8]* @.str.2, i64 0, i64 0), i8* %179)
  br label %181

181:                                              ; preds = %174
  %182 = load i32, i32* %3, align 4
  %183 = add nsw i32 %182, 1
  store i32 %183, i32* %3, align 4
  br label %170

184:                                              ; preds = %170
  ret i32 0
}

declare dso_local i32 @__isoc99_scanf(i8*, ...) #1

; Function Attrs: nounwind
declare dso_local noalias i8* @malloc(i64) #2

declare dso_local i32 @printf(i8*, ...) #1


!llvm.module.flags = !{!0}
!llvm.ident = !{!1}

!0 = !{i32 1, !"wchar_size", i32 4}
!1 = !{!"clang version 10.0.0-4ubuntu1 "}
